; ModuleID = 'bench/openblas/original/z_abs.ll'
source_filename = "bench/openblas/original/z_abs.ll"
target datalayout = "e-m:e-p270:32:32-p271:32:32-p272:64:64-i64:64-i128:128-f80:128-n8:16:32:64-S128"
target triple = "x86_64-pc-linux-gnu"

; Function Attrs: mustprogress nofree norecurse nosync nounwind willreturn memory(argmem: read) uwtable
define double @z_abs(ptr noundef readonly captures(none) %0) local_unnamed_addr #0 {
  %2 = load double, ptr %0, align 8, !tbaa !3
  %3 = getelementptr inbounds nuw i8, ptr %0, i64 8
  %4 = load double, ptr %3, align 8, !tbaa !3
  %5 = tail call double @llvm.fabs.f64(double %2)
  %6 = tail call double @llvm.fabs.f64(double %4)
  %7 = fcmp ogt double %6, %5
  %.018 = select i1 %7, double %6, double %5
  %.0 = select i1 %7, double %5, double %6
  %8 = fcmp oeq double %.0, 0.000000e+00
  %9 = fdiv double %.0, %.018
  %10 = tail call double @llvm.fmuladd.f64(double %9, double %9, double 1.000000e+00)
  %sqrt = tail call double @llvm.sqrt.f64(double %10)
  %11 = fmul double %.018, %sqrt
  %.019 = select i1 %8, double %.018, double %11
  ret double %.019
}

; Function Attrs: mustprogress nocallback nofree nosync nounwind speculatable willreturn memory(none)
declare double @llvm.fabs.f64(double) #1

; Function Attrs: mustprogress nocallback nofree nosync nounwind speculatable willreturn memory(none)
declare double @llvm.fmuladd.f64(double, double, double) #1

; Function Attrs: nocallback nofree nosync nounwind speculatable willreturn memory(none)
declare double @llvm.sqrt.f64(double) #2


!llvm.module.flags = !{!0, !1, !2}

!0 = !{i32 1, !"wchar_size", i32 4}
!1 = !{i32 8, !"PIC Level", i32 2}
!2 = !{i32 7, !"uwtable", i32 2}
!3 = !{!4, !4, i64 0}
!4 = !{!"double", !5, i64 0}
!5 = !{!"omnipotent char", !6, i64 0}
!6 = !{!"Simple C/C++ TBAA"}
